target datalayout = "e-m:e-p270:32:32-p271:32:32-p272:64:64-i64:64-i128:128-f80:128-n8:16:32:64-S128"
target triple = "x86_64-pc-linux-gnu"

%struct._object = type { %union.anon, ptr }
%union.anon = type { i64 }

@.str.10 = private unnamed_addr constant [18 x i8] c"_pystart_callback\00", align 1
@_Py_NoneStruct = external global %struct._object, align 8

; Function Attrs: nounwind uwtable
define internal ptr @_lsprof_Profiler__pystart_callback_impl(ptr noundef %0, ptr noundef %1, ptr noundef %2) #0 {
  %4 = alloca ptr, align 8
  %5 = alloca ptr, align 8
  %6 = alloca ptr, align 8
  store ptr %0, ptr %4, align 8, !tbaa !24
  store ptr %1, ptr %5, align 8, !tbaa !3
  store ptr %2, ptr %6, align 8, !tbaa !3
  %7 = load ptr, ptr %4, align 8, !tbaa !24
  %8 = load ptr, ptr %5, align 8, !tbaa !3
  %9 = load ptr, ptr %5, align 8, !tbaa !3
  call void @ptrace_enter_call(ptr noundef %7, ptr noundef %8, ptr noundef %9)
  ret ptr @_Py_NoneStruct
}

; Function Attrs: nounwind uwtable
define internal ptr @_lsprof_Profiler__pystart_callback(ptr noundef %0, ptr noundef %1, i64 noundef %2) #0 {
  %4 = alloca ptr, align 8
  %5 = alloca ptr, align 8
  %6 = alloca i64, align 8
  %7 = alloca ptr, align 8
  %8 = alloca ptr, align 8
  %9 = alloca ptr, align 8
  store ptr %0, ptr %4, align 8, !tbaa !3
  store ptr %1, ptr %5, align 8, !tbaa !42
  store i64 %2, ptr %6, align 8, !tbaa !40
  call void @llvm.lifetime.start.p0(i64 8, ptr %7) #6
  store ptr null, ptr %7, align 8, !tbaa !3
  call void @llvm.lifetime.start.p0(i64 8, ptr %8) #6
  call void @llvm.lifetime.start.p0(i64 8, ptr %9) #6
  %10 = load i64, ptr %6, align 8, !tbaa !40
  %11 = icmp sle i64 2, %10
  br i1 %11, label %12, label %15

12:                                               ; preds = %3
  %13 = load i64, ptr %6, align 8, !tbaa !40
  %14 = icmp sle i64 %13, 2
  br i1 %14, label %20, label %15

15:                                               ; preds = %12, %3
  %16 = load i64, ptr %6, align 8, !tbaa !40
  %17 = call i32 @_PyArg_CheckPositional(ptr noundef @.str.10, i64 noundef %16, i64 noundef 2, i64 noundef 2)
  %18 = icmp ne i32 %17, 0
  br i1 %18, label %20, label %19

19:                                               ; preds = %15
  br label %31

20:                                               ; preds = %15, %12
  %21 = load ptr, ptr %5, align 8, !tbaa !42
  %22 = getelementptr ptr, ptr %21, i64 0
  %23 = load ptr, ptr %22, align 8, !tbaa !3
  store ptr %23, ptr %8, align 8, !tbaa !3
  %24 = load ptr, ptr %5, align 8, !tbaa !42
  %25 = getelementptr ptr, ptr %24, i64 1
  %26 = load ptr, ptr %25, align 8, !tbaa !3
  store ptr %26, ptr %9, align 8, !tbaa !3
  %27 = load ptr, ptr %4, align 8, !tbaa !3
  %28 = load ptr, ptr %8, align 8, !tbaa !3
  %29 = load ptr, ptr %9, align 8, !tbaa !3
  %30 = call ptr @_lsprof_Profiler__pystart_callback_impl(ptr noundef %27, ptr noundef %28, ptr noundef %29)
  store ptr %30, ptr %7, align 8, !tbaa !3
  br label %31

31:                                               ; preds = %20, %19
  %32 = load ptr, ptr %7, align 8, !tbaa !3
  call void @llvm.lifetime.end.p0(i64 8, ptr %9) #6
  call void @llvm.lifetime.end.p0(i64 8, ptr %8) #6
  call void @llvm.lifetime.end.p0(i64 8, ptr %7) #6
  ret ptr %32
}