; Function Attrs: nounwind uwtable
define internal noundef ptr @_lsprof_Profiler__pystart_callback(ptr noundef %0, ptr noundef readonly captures(none) %1, i64 noundef %2) #0 {
  %or.cond = icmp eq i64 %2, 2
  br i1 %or.cond, label %6, label %4

4:                                                ; preds = %3
  %5 = tail call i32 @_PyArg_CheckPositional(ptr noundef nonnull @.str.10, i64 noundef %2, i64 noundef 2, i64 noundef 2) #5
  %.not = icmp eq i32 %5, 0
  br i1 %.not, label %8, label %6

6:                                                ; preds = %3, %4
  %7 = load ptr, ptr %1, align 8, !tbaa !48
  tail call fastcc void @ptrace_enter_call(ptr noundef %0, ptr noundef %7, ptr noundef %7)
  br label %8

8:                                                ; preds = %4, %6
  %.0 = phi ptr [ @_Py_NoneStruct, %6 ], [ null, %4 ]
  ret ptr %.0
}